; Function Attrs: nounwind uwtable
define ptr @l_Lean_withTraceNode___at_Lean_Elab_Tactic_BVDecide_Frontend_Normalize_bvNormalize___spec__1___lambda__4___boxed(ptr noundef %0, ptr noundef %1, ptr noundef %2, ptr noundef %3, ptr noundef %4, ptr noundef %5, ptr noundef %6, ptr noundef %7, ptr noundef %8, ptr noundef %9, ptr noundef %10, ptr noundef %11, ptr noundef %12) local_unnamed_addr #0 {
  %14 = ptrtoint ptr %2 to i64
  %15 = lshr i64 %14, 1
  %16 = trunc i64 %15 to i8
  %17 = and i64 %14, 1
  %.not = icmp eq i64 %17, 0
  br i1 %.not, label %18, label %lean_dec.exit21

18:                                               ; preds = %13
  %19 = load i32, ptr %2, align 4, !tbaa !4
  %20 = icmp sgt i32 %19, 1
  br i1 %20, label %21, label %23, !prof !14

21:                                               ; preds = %18
  %22 = add nsw i32 %19, -1
  store i32 %22, ptr %2, align 4, !tbaa !4
  br label %lean_dec.exit21

23:                                               ; preds = %18
  %.not.i = icmp eq i32 %19, 0
  br i1 %.not.i, label %lean_dec.exit21, label %24

24:                                               ; preds = %23
  tail call void @lean_dec_ref_cold(ptr noundef nonnull %2) #4
  br label %lean_dec.exit21

lean_dec.exit21:                                  ; preds = %24, %23, %21, %13
  %25 = ptrtoint ptr %5 to i64
  %26 = lshr i64 %25, 1
  %27 = trunc i64 %26 to i8
  %28 = and i64 %25, 1
  %.not28 = icmp eq i64 %28, 0
  br i1 %.not28, label %29, label %lean_dec.exit20

29:                                               ; preds = %lean_dec.exit21
  %30 = load i32, ptr %5, align 4, !tbaa !4
  %31 = icmp sgt i32 %30, 1
  br i1 %31, label %32, label %34, !prof !14

32:                                               ; preds = %29
  %33 = add nsw i32 %30, -1
  store i32 %33, ptr %5, align 4, !tbaa !4
  br label %lean_dec.exit20

34:                                               ; preds = %29
  %.not.i22 = icmp eq i32 %30, 0
  br i1 %.not.i22, label %lean_dec.exit20, label %35

35:                                               ; preds = %34
  tail call void @lean_dec_ref_cold(ptr noundef nonnull %5) #4
  br label %lean_dec.exit20

lean_dec.exit20:                                  ; preds = %35, %34, %32, %lean_dec.exit21
  %36 = tail call ptr @l_Lean_withTraceNode___at_Lean_Elab_Tactic_BVDecide_Frontend_Normalize_bvNormalize___spec__1___lambda__4(ptr noundef %0, ptr noundef %1, i8 noundef zeroext %16, ptr noundef %3, ptr noundef %4, i8 noundef zeroext %27, ptr noundef %6, ptr poison, ptr noundef %8, ptr noundef %9, ptr noundef %10, ptr noundef %11, ptr noundef %12)
  %37 = ptrtoint ptr %7 to i64
  %38 = and i64 %37, 1
  %.not29 = icmp eq i64 %38, 0
  br i1 %.not29, label %39, label %lean_dec.exit19

39:                                               ; preds = %lean_dec.exit20
  %40 = load i32, ptr %7, align 4, !tbaa !4
  %41 = icmp sgt i32 %40, 1
  br i1 %41, label %42, label %44, !prof !14

42:                                               ; preds = %39
  %43 = add nsw i32 %40, -1
  store i32 %43, ptr %7, align 4, !tbaa !4
  br label %lean_dec.exit19

44:                                               ; preds = %39
  %.not.i24 = icmp eq i32 %40, 0
  br i1 %.not.i24, label %lean_dec.exit19, label %45

45:                                               ; preds = %44
  tail call void @lean_dec_ref_cold(ptr noundef nonnull %7) #4
  br label %lean_dec.exit19

lean_dec.exit19:                                  ; preds = %45, %44, %42, %lean_dec.exit20
  %46 = ptrtoint ptr %0 to i64
  %47 = and i64 %46, 1
  %.not30 = icmp eq i64 %47, 0
  br i1 %.not30, label %48, label %lean_dec.exit

48:                                               ; preds = %lean_dec.exit19
  %49 = load i32, ptr %0, align 4, !tbaa !4
  %50 = icmp sgt i32 %49, 1
  br i1 %50, label %51, label %53, !prof !14

51:                                               ; preds = %48
  %52 = add nsw i32 %49, -1
  store i32 %52, ptr %0, align 4, !tbaa !4
  br label %lean_dec.exit

53:                                               ; preds = %48
  %.not.i26 = icmp eq i32 %49, 0
  br i1 %.not.i26, label %lean_dec.exit, label %54

54:                                               ; preds = %53
  tail call void @lean_dec_ref_cold(ptr noundef nonnull %0) #4
  br label %lean_dec.exit

lean_dec.exit:                                    ; preds = %54, %53, %51, %lean_dec.exit19
  ret ptr %36
}